; Function Attrs: mustprogress nofree norecurse nosync nounwind willreturn memory(argmem: read) uwtable
define { ptr, i64 } @_ZNK5boost15program_options18option_description10long_namesB5cxx11Ev(ptr nocapture noundef nonnull readonly align 8 dereferenceable(112) %0) local_unnamed_addr #8 align 2 {
  %2 = getelementptr inbounds nuw i8, ptr %0, i64 40
  %3 = load ptr, ptr %2, align 8, !tbaa !37
  %4 = getelementptr inbounds nuw i8, ptr %0, i64 48
  %5 = load ptr, ptr %4, align 8, !tbaa !37
  %6 = icmp eq ptr %3, %5
  %7 = ptrtoint ptr %5 to i64
  %8 = ptrtoint ptr %3 to i64
  %9 = sub i64 %7, %8
  %10 = ashr exact i64 %9, 5
  %.sroa.03.0 = select i1 %6, ptr null, ptr %3
  %.sroa.3.0 = select i1 %6, i64 0, i64 %10
  %.fca.0.insert = insertvalue { ptr, i64 } poison, ptr %.sroa.03.0, 0
  %.fca.1.insert = insertvalue { ptr, i64 } %.fca.0.insert, i64 %.sroa.3.0, 1
  ret { ptr, i64 } %.fca.1.insert
}